; Function Attrs: mustprogress uwtable
define internal void @_ZN7rocksdb12_GLOBAL__N_112SimCacheImpl13reset_counterEv(ptr noundef nonnull align 8 captures(none) dereferenceable(216) %0) unnamed_addr #4 align 2 {
  %2 = getelementptr inbounds nuw i8, ptr %0, i64 112
  store atomic i64 0, ptr %2 monotonic, align 8
  %3 = getelementptr inbounds nuw i8, ptr %0, i64 120
  store atomic i64 0, ptr %3 monotonic, align 8
  %4 = getelementptr inbounds nuw i8, ptr %0, i64 128
  %5 = load ptr, ptr %4, align 8, !tbaa !180
  %.not.i = icmp eq ptr %5, null
  br i1 %.not.i, label %_ZN7rocksdb14SetTickerCountEPNS_10StatisticsEjm.exit2, label %_ZN7rocksdb14SetTickerCountEPNS_10StatisticsEjm.exit

_ZN7rocksdb14SetTickerCountEPNS_10StatisticsEjm.exit: ; preds = %1
  %6 = load ptr, ptr %5, align 8, !tbaa !32
  %7 = getelementptr inbounds nuw i8, ptr %6, i64 184
  %8 = load ptr, ptr %7, align 8
  tail call void %8(ptr noundef nonnull align 8 dereferenceable(33) %5, i32 noundef 43, i64 noundef 0)
  %.pr = load ptr, ptr %4, align 8, !tbaa !180
  %.not.i1 = icmp eq ptr %.pr, null
  br i1 %.not.i1, label %_ZN7rocksdb14SetTickerCountEPNS_10StatisticsEjm.exit2, label %9

9:                                                ; preds = %_ZN7rocksdb14SetTickerCountEPNS_10StatisticsEjm.exit
  %10 = load ptr, ptr %.pr, align 8, !tbaa !32
  %11 = getelementptr inbounds nuw i8, ptr %10, i64 184
  %12 = load ptr, ptr %11, align 8
  tail call void %12(ptr noundef nonnull align 8 dereferenceable(33) %.pr, i32 noundef 44, i64 noundef 0)
  br label %_ZN7rocksdb14SetTickerCountEPNS_10StatisticsEjm.exit2

_ZN7rocksdb14SetTickerCountEPNS_10StatisticsEjm.exit2: ; preds = %1, %_ZN7rocksdb14SetTickerCountEPNS_10StatisticsEjm.exit, %9
  ret void
}